; Function Attrs: nounwind uwtable
define dso_local i32 @acct_storage_p_shutdown(ptr noundef %0) local_unnamed_addr #0 {
  %2 = alloca %struct.persist_msg_t, align 8
  %3 = alloca i32, align 4
  call void @llvm.lifetime.start.p0(i64 24, ptr nonnull %2) #11
  %4 = getelementptr inbounds nuw i8, ptr %2, i64 8
  call void @llvm.memset.p0.i64(ptr noundef nonnull align 8 dereferenceable(24) %4, i8 0, i64 16, i1 false)
  call void @llvm.lifetime.start.p0(i64 4, ptr nonnull %3) #11
  store i32 0, ptr %3, align 4
  %5 = getelementptr inbounds nuw i8, ptr %2, i64 16
  store i16 1492, ptr %5, align 8
  store ptr %0, ptr %2, align 8
  %6 = call i32 @dbd_conn_send_recv_rc_msg(i16 noundef zeroext 11008, ptr noundef nonnull %2, ptr noundef nonnull %3) #11
  %7 = load i32, ptr %3, align 4
  call void @llvm.lifetime.end.p0(i64 4, ptr nonnull %3) #11
  call void @llvm.lifetime.end.p0(i64 24, ptr nonnull %2) #11
  ret i32 %7
}